; Function Attrs: mustprogress nofree norecurse nosync nounwind memory(readwrite, inaccessiblemem: none) uwtable
define void @_ZN10OpenSubdiv6v3_6_03Vtr8internal10Refinement33populateVertexTagsFromParentFacesEv(ptr nocapture noundef nonnull readonly align 8 dereferenceable(504) %0) local_unnamed_addr #10 align 2 {
  %2 = getelementptr inbounds nuw i8, ptr %0, i64 52
  %3 = load i32, ptr %2, align 4
  %4 = icmp eq i32 %3, 0
  br i1 %4, label %.loopexit, label %5

5:                                                ; preds = %1
  %6 = getelementptr inbounds nuw i8, ptr %0, i64 76
  %7 = load i32, ptr %6, align 4
  %8 = add nsw i32 %7, %3
  %9 = getelementptr inbounds nuw i8, ptr %0, i64 8
  %10 = load ptr, ptr %9, align 8
  %11 = getelementptr inbounds nuw i8, ptr %10, i64 12
  %12 = load i32, ptr %11, align 4
  %13 = icmp sgt i32 %12, 0
  %14 = icmp sgt i32 %3, 0
  br i1 %13, label %.preheader, label %.preheader13

.preheader13:                                     ; preds = %5
  br i1 %14, label %.lr.ph, label %.loopexit

.lr.ph:                                           ; preds = %.preheader13
  %15 = getelementptr inbounds nuw i8, ptr %0, i64 16
  %16 = getelementptr inbounds nuw i8, ptr %0, i64 312
  %17 = getelementptr inbounds nuw i8, ptr %0, i64 32
  %18 = sext i32 %7 to i64
  %19 = sext i32 %8 to i64
  br label %29

.preheader:                                       ; preds = %5
  br i1 %14, label %.lr.ph17, label %.loopexit

.lr.ph17:                                         ; preds = %.preheader
  %20 = getelementptr inbounds nuw i8, ptr %0, i64 16
  %21 = sext i32 %7 to i64
  %22 = sext i32 %8 to i64
  br label %23

23:                                               ; preds = %.lr.ph17, %23
  %indvars.iv20 = phi i64 [ %21, %.lr.ph17 ], [ %indvars.iv.next21, %23 ]
  %24 = load ptr, ptr %20, align 8
  %25 = getelementptr inbounds nuw i8, ptr %24, i64 432
  %26 = load ptr, ptr %25, align 8
  %27 = getelementptr inbounds %"struct.OpenSubdiv::v3_6_0::Vtr::internal::Level::VTag", ptr %26, i64 %indvars.iv20
  store i16 128, ptr %27, align 2
  %indvars.iv.next21 = add nsw i64 %indvars.iv20, 1
  %28 = icmp slt i64 %indvars.iv.next21, %22
  br i1 %28, label %23, label %.loopexit, !llvm.loop !69

29:                                               ; preds = %.lr.ph, %52
  %indvars.iv = phi i64 [ %18, %.lr.ph ], [ %indvars.iv.next, %52 ]
  %30 = load ptr, ptr %15, align 8
  %31 = getelementptr inbounds nuw i8, ptr %30, i64 432
  %32 = load ptr, ptr %31, align 8
  %33 = getelementptr inbounds %"struct.OpenSubdiv::v3_6_0::Vtr::internal::Level::VTag", ptr %32, i64 %indvars.iv
  store i16 128, ptr %33, align 2
  %34 = load ptr, ptr %9, align 8
  %35 = load ptr, ptr %16, align 8
  %36 = getelementptr inbounds i32, ptr %35, i64 %indvars.iv
  %37 = load i32, ptr %36, align 4
  %38 = getelementptr inbounds nuw i8, ptr %34, i64 24
  %39 = shl nsw i32 %37, 1
  %40 = sext i32 %39 to i64
  %41 = load ptr, ptr %38, align 8
  %42 = getelementptr inbounds i32, ptr %41, i64 %40
  %43 = load i32, ptr %42, align 4
  %44 = load i32, ptr %17, align 8
  %.not = icmp eq i32 %43, %44
  br i1 %.not, label %52, label %45

45:                                               ; preds = %29
  %46 = load ptr, ptr %15, align 8
  %47 = getelementptr inbounds nuw i8, ptr %46, i64 432
  %48 = load ptr, ptr %47, align 8
  %49 = getelementptr inbounds %"struct.OpenSubdiv::v3_6_0::Vtr::internal::Level::VTag", ptr %48, i64 %indvars.iv
  %50 = load i16, ptr %49, align 2
  %51 = or i16 %50, 2
  store i16 %51, ptr %49, align 2
  br label %52

52:                                               ; preds = %29, %45
  %indvars.iv.next = add nsw i64 %indvars.iv, 1
  %53 = icmp slt i64 %indvars.iv.next, %19
  br i1 %53, label %29, label %.loopexit, !llvm.loop !70

.loopexit:                                        ; preds = %52, %23, %.preheader13, %.preheader, %1
  ret void
}